target datalayout = "e-m:e-p270:32:32-p271:32:32-p272:64:64-i64:64-i128:128-f80:128-n8:16:32:64-S128"
target triple = "x86_64-unknown-linux-gnu"

%struct.ChardevCommon = type { ptr, i8, i8 }
%struct.ChardevVC = type { ptr, i8, i8, i8, i64, i8, i64, i8, i64, i8, i64 }

@.str.10 = private unnamed_addr constant [8 x i8] c"logfile\00", align 1
@.str.11 = private unnamed_addr constant [10 x i8] c"logappend\00", align 1
@.str.29 = private unnamed_addr constant [6 x i8] c"width\00", align 1
@.str.30 = private unnamed_addr constant [7 x i8] c"height\00", align 1
@.str.31 = private unnamed_addr constant [5 x i8] c"cols\00", align 1
@.str.32 = private unnamed_addr constant [5 x i8] c"rows\00", align 1

; Function Attrs: nounwind sspstrong uwtable
define dso_local zeroext i1 @visit_type_ChardevCommon_members(ptr noundef %v, ptr noundef %obj, ptr noundef %errp) #0 {
entry:
  %retval = alloca i1, align 1
  %v.addr = alloca ptr, align 8
  %obj.addr = alloca ptr, align 8
  %errp.addr = alloca ptr, align 8
  %has_logfile = alloca i8, align 1
  store ptr %v, ptr %v.addr, align 8
  store ptr %obj, ptr %obj.addr, align 8
  store ptr %errp, ptr %errp.addr, align 8
  %0 = load ptr, ptr %obj.addr, align 8
  %logfile = getelementptr inbounds %struct.ChardevCommon, ptr %0, i32 0, i32 0
  %1 = load ptr, ptr %logfile, align 8
  %tobool = icmp ne ptr %1, null
  %lnot = xor i1 %tobool, true
  %lnot1 = xor i1 %lnot, true
  %frombool = zext i1 %lnot1 to i8
  store i8 %frombool, ptr %has_logfile, align 1
  %2 = load ptr, ptr %v.addr, align 8
  %call = call zeroext i1 @visit_optional(ptr noundef %2, ptr noundef @.str.10, ptr noundef %has_logfile)
  br i1 %call, label %if.then, label %if.end5

if.then:                                          ; preds = %entry
  %3 = load ptr, ptr %v.addr, align 8
  %4 = load ptr, ptr %obj.addr, align 8
  %logfile2 = getelementptr inbounds %struct.ChardevCommon, ptr %4, i32 0, i32 0
  %5 = load ptr, ptr %errp.addr, align 8
  %call3 = call zeroext i1 @visit_type_str(ptr noundef %3, ptr noundef @.str.10, ptr noundef %logfile2, ptr noundef %5)
  br i1 %call3, label %if.end, label %if.then4

if.then4:                                         ; preds = %if.then
  store i1 false, ptr %retval, align 1
  br label %return

if.end:                                           ; preds = %if.then
  br label %if.end5

if.end5:                                          ; preds = %if.end, %entry
  %6 = load ptr, ptr %v.addr, align 8
  %7 = load ptr, ptr %obj.addr, align 8
  %has_logappend = getelementptr inbounds %struct.ChardevCommon, ptr %7, i32 0, i32 1
  %call6 = call zeroext i1 @visit_optional(ptr noundef %6, ptr noundef @.str.11, ptr noundef %has_logappend)
  br i1 %call6, label %if.then7, label %if.end11

if.then7:                                         ; preds = %if.end5
  %8 = load ptr, ptr %v.addr, align 8
  %9 = load ptr, ptr %obj.addr, align 8
  %logappend = getelementptr inbounds %struct.ChardevCommon, ptr %9, i32 0, i32 2
  %10 = load ptr, ptr %errp.addr, align 8
  %call8 = call zeroext i1 @visit_type_bool(ptr noundef %8, ptr noundef @.str.11, ptr noundef %logappend, ptr noundef %10)
  br i1 %call8, label %if.end10, label %if.then9

if.then9:                                         ; preds = %if.then7
  store i1 false, ptr %retval, align 1
  br label %return

if.end10:                                         ; preds = %if.then7
  br label %if.end11

if.end11:                                         ; preds = %if.end10, %if.end5
  store i1 true, ptr %retval, align 1
  br label %return

return:                                           ; preds = %if.end11, %if.then9, %if.then4
  %11 = load i1, ptr %retval, align 1
  ret i1 %11
}

; Function Attrs: nounwind sspstrong uwtable
define dso_local zeroext i1 @visit_type_ChardevVC_members(ptr noundef %v, ptr noundef %obj, ptr noundef %errp) #0 {
entry:
  %retval = alloca i1, align 1
  %v.addr = alloca ptr, align 8
  %obj.addr = alloca ptr, align 8
  %errp.addr = alloca ptr, align 8
  store ptr %v, ptr %v.addr, align 8
  store ptr %obj, ptr %obj.addr, align 8
  store ptr %errp, ptr %errp.addr, align 8
  %0 = load ptr, ptr %v.addr, align 8
  %1 = load ptr, ptr %obj.addr, align 8
  %2 = load ptr, ptr %errp.addr, align 8
  %call = call zeroext i1 @visit_type_ChardevCommon_members(ptr noundef %0, ptr noundef %1, ptr noundef %2)
  br i1 %call, label %if.end, label %if.then

if.then:                                          ; preds = %entry
  store i1 false, ptr %retval, align 1
  br label %return

if.end:                                           ; preds = %entry
  %3 = load ptr, ptr %v.addr, align 8
  %4 = load ptr, ptr %obj.addr, align 8
  %has_width = getelementptr inbounds %struct.ChardevVC, ptr %4, i32 0, i32 3
  %call1 = call zeroext i1 @visit_optional(ptr noundef %3, ptr noundef @.str.29, ptr noundef %has_width)
  br i1 %call1, label %if.then2, label %if.end6

if.then2:                                         ; preds = %if.end
  %5 = load ptr, ptr %v.addr, align 8
  %6 = load ptr, ptr %obj.addr, align 8
  %width = getelementptr inbounds %struct.ChardevVC, ptr %6, i32 0, i32 4
  %7 = load ptr, ptr %errp.addr, align 8
  %call3 = call zeroext i1 @visit_type_int(ptr noundef %5, ptr noundef @.str.29, ptr noundef %width, ptr noundef %7)
  br i1 %call3, label %if.end5, label %if.then4

if.then4:                                         ; preds = %if.then2
  store i1 false, ptr %retval, align 1
  br label %return

if.end5:                                          ; preds = %if.then2
  br label %if.end6

if.end6:                                          ; preds = %if.end5, %if.end
  %8 = load ptr, ptr %v.addr, align 8
  %9 = load ptr, ptr %obj.addr, align 8
  %has_height = getelementptr inbounds %struct.ChardevVC, ptr %9, i32 0, i32 5
  %call7 = call zeroext i1 @visit_optional(ptr noundef %8, ptr noundef @.str.30, ptr noundef %has_height)
  br i1 %call7, label %if.then8, label %if.end12

if.then8:                                         ; preds = %if.end6
  %10 = load ptr, ptr %v.addr, align 8
  %11 = load ptr, ptr %obj.addr, align 8
  %height = getelementptr inbounds %struct.ChardevVC, ptr %11, i32 0, i32 6
  %12 = load ptr, ptr %errp.addr, align 8
  %call9 = call zeroext i1 @visit_type_int(ptr noundef %10, ptr noundef @.str.30, ptr noundef %height, ptr noundef %12)
  br i1 %call9, label %if.end11, label %if.then10

if.then10:                                        ; preds = %if.then8
  store i1 false, ptr %retval, align 1
  br label %return

if.end11:                                         ; preds = %if.then8
  br label %if.end12

if.end12:                                         ; preds = %if.end11, %if.end6
  %13 = load ptr, ptr %v.addr, align 8
  %14 = load ptr, ptr %obj.addr, align 8
  %has_cols = getelementptr inbounds %struct.ChardevVC, ptr %14, i32 0, i32 7
  %call13 = call zeroext i1 @visit_optional(ptr noundef %13, ptr noundef @.str.31, ptr noundef %has_cols)
  br i1 %call13, label %if.then14, label %if.end18

if.then14:                                        ; preds = %if.end12
  %15 = load ptr, ptr %v.addr, align 8
  %16 = load ptr, ptr %obj.addr, align 8
  %cols = getelementptr inbounds %struct.ChardevVC, ptr %16, i32 0, i32 8
  %17 = load ptr, ptr %errp.addr, align 8
  %call15 = call zeroext i1 @visit_type_int(ptr noundef %15, ptr noundef @.str.31, ptr noundef %cols, ptr noundef %17)
  br i1 %call15, label %if.end17, label %if.then16

if.then16:                                        ; preds = %if.then14
  store i1 false, ptr %retval, align 1
  br label %return

if.end17:                                         ; preds = %if.then14
  br label %if.end18

if.end18:                                         ; preds = %if.end17, %if.end12
  %18 = load ptr, ptr %v.addr, align 8
  %19 = load ptr, ptr %obj.addr, align 8
  %has_rows = getelementptr inbounds %struct.ChardevVC, ptr %19, i32 0, i32 9
  %call19 = call zeroext i1 @visit_optional(ptr noundef %18, ptr noundef @.str.32, ptr noundef %has_rows)
  br i1 %call19, label %if.then20, label %if.end24

if.then20:                                        ; preds = %if.end18
  %20 = load ptr, ptr %v.addr, align 8
  %21 = load ptr, ptr %obj.addr, align 8
  %rows = getelementptr inbounds %struct.ChardevVC, ptr %21, i32 0, i32 10
  %22 = load ptr, ptr %errp.addr, align 8
  %call21 = call zeroext i1 @visit_type_int(ptr noundef %20, ptr noundef @.str.32, ptr noundef %rows, ptr noundef %22)
  br i1 %call21, label %if.end23, label %if.then22

if.then22:                                        ; preds = %if.then20
  store i1 false, ptr %retval, align 1
  br label %return

if.end23:                                         ; preds = %if.then20
  br label %if.end24

if.end24:                                         ; preds = %if.end23, %if.end18
  store i1 true, ptr %retval, align 1
  br label %return

return:                                           ; preds = %if.end24, %if.then22, %if.then16, %if.then10, %if.then4, %if.then
  %23 = load i1, ptr %retval, align 1
  ret i1 %23
}